; ModuleID = '44/1379.c'
source_filename = "44/1379.c"
target datalayout = "e-m:e-p270:32:32-p271:32:32-p272:64:64-i64:64-f80:128-n8:16:32:64-S128"
target triple = "x86_64-pc-linux-gnu"

@.str = private unnamed_addr constant [3 x i8] c"%d\00", align 1
@.str.1 = private unnamed_addr constant [2 x i8] c"0\00", align 1
@.str.2 = private unnamed_addr constant [2 x i8] c"-\00", align 1
@.str.3 = private unnamed_addr constant [2 x i8] c"\0A\00", align 1

; Function Attrs: noinline nounwind uwtable
define dso_local i32 @main() #0 {
  %1 = alloca i32, align 4
  %2 = alloca [6 x i32], align 16
  %3 = alloca i32, align 4
  store i32 0, i32* %1, align 4
  store i32 0, i32* %3, align 4
  br label %4

4:                                                ; preds = %12, %0
  %5 = load i32, i32* %3, align 4
  %6 = icmp slt i32 %5, 6
  br i1 %6, label %7, label %15

7:                                                ; preds = %4
  %8 = load i32, i32* %3, align 4
  %9 = sext i32 %8 to i64
  %10 = getelementptr inbounds [6 x i32], [6 x i32]* %2, i64 0, i64 %9
  %11 = call i32 (i8*, ...) @__isoc99_scanf(i8* getelementptr inbounds ([3 x i8], [3 x i8]* @.str, i64 0, i64 0), i32* %10)
  br label %12

12:                                               ; preds = %7
  %13 = load i32, i32* %3, align 4
  %14 = add nsw i32 %13, 1
  store i32 %14, i32* %3, align 4
  br label %4

15:                                               ; preds = %4
  store i32 0, i32* %3, align 4
  br label %16

16:                                               ; preds = %25, %15
  %17 = load i32, i32* %3, align 4
  %18 = icmp slt i32 %17, 6
  br i1 %18, label %19, label %28

19:                                               ; preds = %16
  %20 = load i32, i32* %3, align 4
  %21 = sext i32 %20 to i64
  %22 = getelementptr inbounds [6 x i32], [6 x i32]* %2, i64 0, i64 %21
  %23 = load i32, i32* %22, align 4
  %24 = call i32 @reverse(i32 %23)
  br label %25

25:                                               ; preds = %19
  %26 = load i32, i32* %3, align 4
  %27 = add nsw i32 %26, 1
  store i32 %27, i32* %3, align 4
  br label %16

28:                                               ; preds = %16
  ret i32 0
}

declare dso_local i32 @__isoc99_scanf(i8*, ...) #1

; Function Attrs: noinline nounwind uwtable
define dso_local i32 @reverse(i32 %0) #0 {
  %2 = alloca i32, align 4
  %3 = alloca i32, align 4
  %4 = alloca i32, align 4
  %5 = alloca i32, align 4
  store i32 %0, i32* %2, align 4
  store i32 0, i32* %3, align 4
  %6 = load i32, i32* %2, align 4
  %7 = icmp eq i32 %6, 0
  br i1 %7, label %8, label %10

8:                                                ; preds = %1
  %9 = call i32 (i8*, ...) @printf(i8* getelementptr inbounds ([2 x i8], [2 x i8]* @.str.1, i64 0, i64 0))
  br label %39

10:                                               ; preds = %1
  %11 = load i32, i32* %2, align 4
  %12 = icmp slt i32 %11, 0
  br i1 %12, label %13, label %15

13:                                               ; preds = %10
  %14 = call i32 (i8*, ...) @printf(i8* getelementptr inbounds ([2 x i8], [2 x i8]* @.str.2, i64 0, i64 0))
  br label %15

15:                                               ; preds = %13, %10
  %16 = load i32, i32* %2, align 4
  %17 = sitofp i32 %16 to double
  %18 = call double @llvm.fabs.f64(double %17)
  %19 = fptosi double %18 to i32
  store i32 %19, i32* %5, align 4
  br label %20

20:                                               ; preds = %35, %15
  %21 = load i32, i32* %5, align 4
  %22 = srem i32 %21, 10
  store i32 %22, i32* %4, align 4
  %23 = load i32, i32* %4, align 4
  %24 = icmp ne i32 %23, 0
  br i1 %24, label %25, label %26

25:                                               ; preds = %20
  store i32 1, i32* %3, align 4
  br label %26

26:                                               ; preds = %25, %20
  %27 = load i32, i32* %3, align 4
  %28 = icmp eq i32 %27, 1
  br i1 %28, label %29, label %32

29:                                               ; preds = %26
  %30 = load i32, i32* %4, align 4
  %31 = call i32 (i8*, ...) @printf(i8* getelementptr inbounds ([3 x i8], [3 x i8]* @.str, i64 0, i64 0), i32 %30)
  br label %32

32:                                               ; preds = %29, %26
  %33 = load i32, i32* %5, align 4
  %34 = sdiv i32 %33, 10
  store i32 %34, i32* %5, align 4
  br label %35

35:                                               ; preds = %32
  %36 = load i32, i32* %5, align 4
  %37 = icmp sgt i32 %36, 0
  br i1 %37, label %20, label %38

38:                                               ; preds = %35
  br label %39

39:                                               ; preds = %38, %8
  %40 = call i32 (i8*, ...) @printf(i8* getelementptr inbounds ([2 x i8], [2 x i8]* @.str.3, i64 0, i64 0))
  ret i32 0
}

declare dso_local i32 @printf(i8*, ...) #1

; Function Attrs: nounwind readnone speculatable willreturn
declare double @llvm.fabs.f64(double) #2


!llvm.module.flags = !{!0}
!llvm.ident = !{!1}

!0 = !{i32 1, !"wchar_size", i32 4}
!1 = !{!"clang version 10.0.0-4ubuntu1 "}
